; Function Attrs: nounwind uwtable
define range(i32 0, 2) i32 @jpeg_start_output(ptr noundef %0, i32 noundef %1) local_unnamed_addr #0 {
  %3 = getelementptr inbounds nuw i8, ptr %0, i64 36
  %4 = load i32, ptr %3, align 4, !tbaa !3
  switch i32 %4, label %5 [
    i32 207, label %11
    i32 204, label %11
  ]

5:                                                ; preds = %2
  %6 = load ptr, ptr %0, align 8, !tbaa !44
  %7 = getelementptr inbounds nuw i8, ptr %6, i64 40
  store i32 20, ptr %7, align 8, !tbaa !45
  %8 = getelementptr inbounds nuw i8, ptr %6, i64 44
  store i32 %4, ptr %8, align 4, !tbaa !47
  %9 = load ptr, ptr %0, align 8, !tbaa !44
  %10 = load ptr, ptr %9, align 8, !tbaa !48
  tail call void %10(ptr noundef nonnull %0) #5
  br label %11

11:                                               ; preds = %2, %2, %5
  %spec.store.select = tail call i32 @llvm.smax.i32(i32 %1, i32 1)
  %12 = getelementptr inbounds nuw i8, ptr %0, i64 576
  %13 = load ptr, ptr %12, align 8, !tbaa !31
  %14 = getelementptr inbounds nuw i8, ptr %13, i64 36
  %15 = load i32, ptr %14, align 4, !tbaa !96
  %.not17 = icmp eq i32 %15, 0
  br i1 %.not17, label %19, label %16

16:                                               ; preds = %11
  %17 = getelementptr inbounds nuw i8, ptr %0, i64 172
  %18 = load i32, ptr %17, align 4, !tbaa !42
  %spec.select = tail call i32 @llvm.smin.i32(i32 %spec.store.select, i32 %18)
  br label %19

19:                                               ; preds = %16, %11
  %.0 = phi i32 [ %spec.store.select, %11 ], [ %spec.select, %16 ]
  %20 = getelementptr inbounds nuw i8, ptr %0, i64 180
  store i32 %.0, ptr %20, align 4, !tbaa !43
  %21 = tail call fastcc i32 @output_pass_setup(ptr noundef nonnull %0)
  ret i32 %21
}